target datalayout = "e-m:e-p270:32:32-p271:32:32-p272:64:64-i64:64-i128:128-f80:128-n8:16:32:64-S128"
target triple = "x86_64-unknown-linux-gnu"

; Function Attrs: inlinehint mustprogress nounwind uwtable
define linkonce_odr noundef double @_ZN8QuantLib7squaredIdEET_S1_(double noundef %x) #5 comdat {
entry:
  %x.addr = alloca double, align 8
  store double %x, ptr %x.addr, align 8, !tbaa !14
  %0 = load double, ptr %x.addr, align 8, !tbaa !14
  %1 = load double, ptr %x.addr, align 8, !tbaa !14
  %mul = fmul double %0, %1
  ret double %mul
}

; Function Attrs: mustprogress uwtable
define internal noundef double @_ZN8QuantLib12_GLOBAL__N_15phi_SEddddddd(double noundef %S, double noundef %gamma, double noundef %H, double noundef %I, double noundef %rT, double noundef %bT, double noundef %v) #2 {
entry:
  %S.addr = alloca double, align 8
  %gamma.addr = alloca double, align 8
  %H.addr = alloca double, align 8
  %I.addr = alloca double, align 8
  %rT.addr = alloca double, align 8
  %bT.addr = alloca double, align 8
  %v.addr = alloca double, align 8
  %lsh = alloca double, align 8
  %lis = alloca double, align 8
  %sv = alloca double, align 8
  store double %S, ptr %S.addr, align 8, !tbaa !14
  store double %gamma, ptr %gamma.addr, align 8, !tbaa !14
  store double %H, ptr %H.addr, align 8, !tbaa !14
  store double %I, ptr %I.addr, align 8, !tbaa !14
  store double %rT, ptr %rT.addr, align 8, !tbaa !14
  store double %bT, ptr %bT.addr, align 8, !tbaa !14
  store double %v, ptr %v.addr, align 8, !tbaa !14
  call void @llvm.lifetime.start.p0(i64 8, ptr %lsh) #14
  %0 = load double, ptr %S.addr, align 8, !tbaa !14
  %1 = load double, ptr %H.addr, align 8, !tbaa !14
  %div = fdiv double %0, %1
  %call = call double @log(double noundef %div) #14, !tbaa !25
  store double %call, ptr %lsh, align 8, !tbaa !14
  call void @llvm.lifetime.start.p0(i64 8, ptr %lis) #14
  %2 = load double, ptr %I.addr, align 8, !tbaa !14
  %3 = load double, ptr %S.addr, align 8, !tbaa !14
  %div1 = fdiv double %2, %3
  %call2 = call double @log(double noundef %div1) #14, !tbaa !25
  store double %call2, ptr %lis, align 8, !tbaa !14
  call void @llvm.lifetime.start.p0(i64 8, ptr %sv) #14
  %4 = load double, ptr %v.addr, align 8, !tbaa !14
  %call3 = call double @sqrt(double noundef %4) #14, !tbaa !25
  store double %call3, ptr %sv, align 8, !tbaa !14
  %5 = load double, ptr %bT.addr, align 8, !tbaa !14
  %6 = load double, ptr %gamma.addr, align 8, !tbaa !14
  %7 = load double, ptr %rT.addr, align 8, !tbaa !14
  %neg = fneg double %7
  %8 = call double @llvm.fmuladd.f64(double %5, double %6, double %neg)
  %9 = load double, ptr %gamma.addr, align 8, !tbaa !14
  %add = fadd double -1.000000e+00, %9
  %10 = load double, ptr %gamma.addr, align 8, !tbaa !14
  %mul = fmul double %add, %10
  %11 = load double, ptr %v.addr, align 8, !tbaa !14
  %mul4 = fmul double %mul, %11
  %div5 = fdiv double %mul4, 2.000000e+00
  %add6 = fadd double %8, %div5
  %call7 = call double @exp(double noundef %add6) #14, !tbaa !25
  %12 = load double, ptr %I.addr, align 8, !tbaa !14
  %13 = load double, ptr %S.addr, align 8, !tbaa !14
  %div8 = fdiv double %12, %13
  %14 = load double, ptr %gamma.addr, align 8, !tbaa !14
  %15 = load double, ptr %bT.addr, align 8, !tbaa !14
  %16 = load double, ptr %v.addr, align 8, !tbaa !14
  %div9 = fdiv double %15, %16
  %add10 = fadd double %14, %div9
  %mul11 = fmul double 2.000000e+00, %add10
  %call12 = call double @pow(double noundef %div8, double noundef %mul11) #14, !tbaa !25
  %17 = load double, ptr %bT.addr, align 8, !tbaa !14
  %18 = load double, ptr %v.addr, align 8, !tbaa !14
  %neg14 = fneg double %18
  %19 = call double @llvm.fmuladd.f64(double 2.000000e+00, double %17, double %neg14)
  %20 = load double, ptr %gamma.addr, align 8, !tbaa !14
  %mul15 = fmul double 2.000000e+00, %20
  %21 = load double, ptr %v.addr, align 8, !tbaa !14
  %22 = call double @llvm.fmuladd.f64(double %mul15, double %21, double %19)
  %23 = load double, ptr %lis, align 8, !tbaa !14
  %24 = call double @llvm.fmuladd.f64(double 4.000000e+00, double %23, double %22)
  %25 = load double, ptr %lsh, align 8, !tbaa !14
  %26 = call double @llvm.fmuladd.f64(double 2.000000e+00, double %25, double %24)
  %call19 = call noundef double @_ZN8QuantLib7squaredIdEET_S1_(double noundef %26)
  %27 = load double, ptr %v.addr, align 8, !tbaa !14
  %mul20 = fmul double 8.000000e+00, %27
  %div21 = fdiv double %call19, %mul20
  %call22 = call double @exp(double noundef %div21) #14, !tbaa !25
  %28 = load double, ptr %I.addr, align 8, !tbaa !14
  %mul23 = fmul double %call22, %28
  %div24 = fdiv double %call12, %mul23
  %fneg = fneg double %div24
  %29 = load double, ptr %bT.addr, align 8, !tbaa !14
  %30 = load double, ptr %v.addr, align 8, !tbaa !14
  %neg26 = fneg double %30
  %31 = call double @llvm.fmuladd.f64(double 2.000000e+00, double %29, double %neg26)
  %32 = load double, ptr %gamma.addr, align 8, !tbaa !14
  %mul27 = fmul double 2.000000e+00, %32
  %33 = load double, ptr %v.addr, align 8, !tbaa !14
  %34 = call double @llvm.fmuladd.f64(double %mul27, double %33, double %31)
  %35 = load double, ptr %lsh, align 8, !tbaa !14
  %36 = call double @llvm.fmuladd.f64(double 2.000000e+00, double %35, double %34)
  %call30 = call noundef double @_ZN8QuantLib7squaredIdEET_S1_(double noundef %36)
  %37 = load double, ptr %v.addr, align 8, !tbaa !14
  %mul31 = fmul double 8.000000e+00, %37
  %div32 = fdiv double %call30, %mul31
  %call33 = call double @exp(double noundef %div32) #14, !tbaa !25
  %38 = load double, ptr %S.addr, align 8, !tbaa !14
  %mul34 = fmul double %call33, %38
  %div35 = fdiv double 1.000000e+00, %mul34
  %sub = fsub double %fneg, %div35
  %39 = load double, ptr %sv, align 8, !tbaa !14
  %mul36 = fmul double 0x40040D931FF62706, %39
  %div37 = fdiv double %sub, %mul36
  %40 = load double, ptr %I.addr, align 8, !tbaa !14
  %41 = load double, ptr %S.addr, align 8, !tbaa !14
  %div38 = fdiv double %40, %41
  %42 = load double, ptr %gamma.addr, align 8, !tbaa !14
  %43 = load double, ptr %bT.addr, align 8, !tbaa !14
  %44 = load double, ptr %v.addr, align 8, !tbaa !14
  %div39 = fdiv double %43, %44
  %add40 = fadd double %42, %div39
  %mul41 = fmul double 2.000000e+00, %add40
  %call42 = call double @pow(double noundef %div38, double noundef %mul41) #14, !tbaa !25
  %45 = load double, ptr %bT.addr, align 8, !tbaa !14
  %46 = load double, ptr %gamma.addr, align 8, !tbaa !14
  %47 = call double @llvm.fmuladd.f64(double 2.000000e+00, double %46, double -1.000000e+00)
  %48 = load double, ptr %v.addr, align 8, !tbaa !14
  %mul45 = fmul double %47, %48
  %49 = call double @llvm.fmuladd.f64(double 2.000000e+00, double %45, double %mul45)
  %mul46 = fmul double %call42, %49
  %50 = load double, ptr %bT.addr, align 8, !tbaa !14
  %51 = load double, ptr %v.addr, align 8, !tbaa !14
  %neg48 = fneg double %51
  %52 = call double @llvm.fmuladd.f64(double 2.000000e+00, double %50, double %neg48)
  %53 = load double, ptr %gamma.addr, align 8, !tbaa !14
  %mul49 = fmul double 2.000000e+00, %53
  %54 = load double, ptr %v.addr, align 8, !tbaa !14
  %55 = call double @llvm.fmuladd.f64(double %mul49, double %54, double %52)
  %56 = load double, ptr %lis, align 8, !tbaa !14
  %57 = call double @llvm.fmuladd.f64(double 4.000000e+00, double %56, double %55)
  %58 = load double, ptr %lsh, align 8, !tbaa !14
  %59 = call double @llvm.fmuladd.f64(double 2.000000e+00, double %58, double %57)
  %60 = load double, ptr %sv, align 8, !tbaa !14
  %mul53 = fmul double 0x4006A09E667F3BCD, %60
  %div54 = fdiv double %59, %mul53
  %call55 = call double @erfc(double noundef %div54) #14, !tbaa !25
  %mul56 = fmul double %mul46, %call55
  %61 = load double, ptr %I.addr, align 8, !tbaa !14
  %mul57 = fmul double 2.000000e+00, %61
  %62 = load double, ptr %v.addr, align 8, !tbaa !14
  %mul58 = fmul double %mul57, %62
  %div59 = fdiv double %mul56, %mul58
  %add60 = fadd double %div37, %div59
  %mul61 = fmul double %call7, %add60
  call void @llvm.lifetime.end.p0(i64 8, ptr %sv) #14
  call void @llvm.lifetime.end.p0(i64 8, ptr %lis) #14
  call void @llvm.lifetime.end.p0(i64 8, ptr %lsh) #14
  ret double %mul61
}