; Function Attrs: mustprogress nounwind uwtable
define internal fastcc noundef double @_ZN8QuantLib12_GLOBAL__N_15phi_SEddddddd(double noundef %S, double noundef %gamma, double noundef %H, double noundef %I, double noundef %rT, double noundef %bT, double noundef %v) unnamed_addr #10 {
entry:
  %div = fdiv double %S, %H
  %call = tail call double @log(double noundef %div) #28, !tbaa !46
  %div1 = fdiv double %I, %S
  %call2 = tail call double @log(double noundef %div1) #28, !tbaa !46
  %call3 = tail call double @sqrt(double noundef %v) #28, !tbaa !46
  %neg = fneg double %rT
  %0 = tail call double @llvm.fmuladd.f64(double %bT, double %gamma, double %neg)
  %add = fadd double %gamma, -1.000000e+00
  %mul = fmul double %gamma, %add
  %mul4 = fmul double %mul, %v
  %div5 = fmul double %mul4, 5.000000e-01
  %add6 = fadd double %0, %div5
  %call7 = tail call double @exp(double noundef %add6) #28, !tbaa !46
  %div9 = fdiv double %bT, %v
  %add10 = fadd double %gamma, %div9
  %mul11 = fmul double %add10, 2.000000e+00
  %call12 = tail call double @pow(double noundef %div1, double noundef %mul11) #28, !tbaa !46
  %neg14 = fneg double %v
  %1 = tail call double @llvm.fmuladd.f64(double %bT, double 2.000000e+00, double %neg14)
  %mul15 = fmul double %gamma, 2.000000e+00
  %2 = tail call double @llvm.fmuladd.f64(double %mul15, double %v, double %1)
  %3 = tail call double @llvm.fmuladd.f64(double %call2, double 4.000000e+00, double %2)
  %4 = tail call double @llvm.fmuladd.f64(double %call, double 2.000000e+00, double %3)
  %mul.i = fmul double %4, %4
  %mul20 = fmul double %v, 8.000000e+00
  %div21 = fdiv double %mul.i, %mul20
  %call22 = tail call double @exp(double noundef %div21) #28, !tbaa !46
  %mul23 = fmul double %I, %call22
  %5 = fneg double %call12
  %fneg = fdiv double %5, %mul23
  %6 = tail call double @llvm.fmuladd.f64(double %call, double 2.000000e+00, double %2)
  %mul.i40 = fmul double %6, %6
  %div32 = fdiv double %mul.i40, %mul20
  %call33 = tail call double @exp(double noundef %div32) #28, !tbaa !46
  %mul34 = fmul double %S, %call33
  %div35 = fdiv double 1.000000e+00, %mul34
  %sub = fsub double %fneg, %div35
  %mul36 = fmul double %call3, 0x40040D931FF62706
  %div37 = fdiv double %sub, %mul36
  %call42 = tail call double @pow(double noundef %div1, double noundef %mul11) #28, !tbaa !46
  %7 = tail call double @llvm.fmuladd.f64(double %gamma, double 2.000000e+00, double -1.000000e+00)
  %mul45 = fmul double %7, %v
  %8 = tail call double @llvm.fmuladd.f64(double %bT, double 2.000000e+00, double %mul45)
  %mul46 = fmul double %8, %call42
  %mul53 = fmul double %call3, 0x4006A09E667F3BCD
  %div54 = fdiv double %4, %mul53
  %call55 = tail call double @erfc(double noundef %div54) #28, !tbaa !46
  %mul56 = fmul double %mul46, %call55
  %mul57 = fmul double %I, 2.000000e+00
  %mul58 = fmul double %mul57, %v
  %div59 = fdiv double %mul56, %mul58
  %add60 = fadd double %div37, %div59
  %mul61 = fmul double %call7, %add60
  ret double %mul61
}